(dp1
S'region'
p2
(dp3
S'length'
p4
I512
sS'unique'
p5
I00
sS'sortable'
p6
I2
sS'sql'
p7
S'CHAR(512)'
p8
sS'notnull'
p9
I00
sS'type'
p10
S'string'
p11
ssS'vedio'
p12
(dp13
g4
I512
sg5
I00
sg6
I4
sg7
S'INTEGER REFERENCES video (id) ON DELETE CASCADE'
p14
sg9
I00
sg10
S'reference video'
p15
ssS'id'
p16
(dp17
g4
I512
sg5
I00
sg6
I1
sg7
S'INTEGER PRIMARY KEY AUTOINCREMENT'
p18
sg9
I00
sg10
S'id'
p19
ssS'index_i'
p20
(dp21
g4
I512
sg5
I00
sg6
I3
sg7
S'INTEGER'
p22
sg9
I00
sg10
S'integer'
p23
ss.